target datalayout = "e-m:e-p270:32:32-p271:32:32-p272:64:64-i64:64-i128:128-f80:128-n8:16:32:64-S128"
target triple = "x86_64-pc-linux-gnu"

%struct.SDL_BlitInfo = type { ptr, ptr, i32, i32, i32, i32, ptr, ptr, i32, i32, i32, i32, ptr, ptr, ptr, ptr, ptr, ptr, i32, i32, i8, i8, i8, i8 }

; Function Attrs: nounwind uwtable
define internal void @Blit1to3Key(ptr noundef %0) #0 {
  %2 = alloca ptr, align 8
  %3 = alloca i32, align 4
  %4 = alloca i32, align 4
  %5 = alloca ptr, align 8
  %6 = alloca i32, align 4
  %7 = alloca ptr, align 8
  %8 = alloca i32, align 4
  %9 = alloca ptr, align 8
  %10 = alloca i32, align 4
  %11 = alloca i32, align 4
  %12 = alloca i32, align 4
  store ptr %0, ptr %2, align 8
  call void @llvm.lifetime.start.p0(i64 4, ptr %3) #2
  %13 = load ptr, ptr %2, align 8
  %14 = getelementptr inbounds nuw %struct.SDL_BlitInfo, ptr %13, i32 0, i32 8
  %15 = load i32, ptr %14, align 8
  store i32 %15, ptr %3, align 4
  call void @llvm.lifetime.start.p0(i64 4, ptr %4) #2
  %16 = load ptr, ptr %2, align 8
  %17 = getelementptr inbounds nuw %struct.SDL_BlitInfo, ptr %16, i32 0, i32 9
  %18 = load i32, ptr %17, align 4
  store i32 %18, ptr %4, align 4
  call void @llvm.lifetime.start.p0(i64 8, ptr %5) #2
  %19 = load ptr, ptr %2, align 8
  %20 = getelementptr inbounds nuw %struct.SDL_BlitInfo, ptr %19, i32 0, i32 1
  %21 = load ptr, ptr %20, align 8
  store ptr %21, ptr %5, align 8
  call void @llvm.lifetime.start.p0(i64 4, ptr %6) #2
  %22 = load ptr, ptr %2, align 8
  %23 = getelementptr inbounds nuw %struct.SDL_BlitInfo, ptr %22, i32 0, i32 5
  %24 = load i32, ptr %23, align 4
  store i32 %24, ptr %6, align 4
  call void @llvm.lifetime.start.p0(i64 8, ptr %7) #2
  %25 = load ptr, ptr %2, align 8
  %26 = getelementptr inbounds nuw %struct.SDL_BlitInfo, ptr %25, i32 0, i32 7
  %27 = load ptr, ptr %26, align 8
  store ptr %27, ptr %7, align 8
  call void @llvm.lifetime.start.p0(i64 4, ptr %8) #2
  %28 = load ptr, ptr %2, align 8
  %29 = getelementptr inbounds nuw %struct.SDL_BlitInfo, ptr %28, i32 0, i32 11
  %30 = load i32, ptr %29, align 4
  store i32 %30, ptr %8, align 4
  call void @llvm.lifetime.start.p0(i64 8, ptr %9) #2
  %31 = load ptr, ptr %2, align 8
  %32 = getelementptr inbounds nuw %struct.SDL_BlitInfo, ptr %31, i32 0, i32 16
  %33 = load ptr, ptr %32, align 8
  store ptr %33, ptr %9, align 8
  call void @llvm.lifetime.start.p0(i64 4, ptr %10) #2
  %34 = load ptr, ptr %2, align 8
  %35 = getelementptr inbounds nuw %struct.SDL_BlitInfo, ptr %34, i32 0, i32 19
  %36 = load i32, ptr %35, align 4
  store i32 %36, ptr %10, align 4
  call void @llvm.lifetime.start.p0(i64 4, ptr %11) #2
  br label %37

37:                                               ; preds = %213, %1
  %38 = load i32, ptr %4, align 4
  %39 = add nsw i32 %38, -1
  store i32 %39, ptr %4, align 4
  %40 = icmp ne i32 %38, 0
  br i1 %40, label %41, label %222

41:                                               ; preds = %37
  call void @llvm.lifetime.start.p0(i64 4, ptr %12) #2
  %42 = load i32, ptr %3, align 4
  %43 = add nsw i32 %42, 3
  %44 = sdiv i32 %43, 4
  store i32 %44, ptr %12, align 4
  %45 = load i32, ptr %3, align 4
  %46 = and i32 %45, 3
  switch i32 %46, label %213 [
    i32 0, label %47
    i32 3, label %88
    i32 2, label %128
    i32 1, label %168
  ]

47:                                               ; preds = %41
  br label %48

48:                                               ; preds = %208, %47
  %49 = load ptr, ptr %5, align 8
  %50 = load i8, ptr %49, align 1
  %51 = zext i8 %50 to i32
  %52 = load i32, ptr %10, align 4
  %53 = icmp ne i32 %51, %52
  br i1 %53, label %54, label %83

54:                                               ; preds = %48
  %55 = load ptr, ptr %5, align 8
  %56 = load i8, ptr %55, align 1
  %57 = zext i8 %56 to i32
  %58 = mul nsw i32 %57, 4
  store i32 %58, ptr %11, align 4
  %59 = load ptr, ptr %9, align 8
  %60 = load i32, ptr %11, align 4
  %61 = add nsw i32 %60, 1
  store i32 %61, ptr %11, align 4
  %62 = sext i32 %60 to i64
  %63 = getelementptr inbounds i8, ptr %59, i64 %62
  %64 = load i8, ptr %63, align 1
  %65 = load ptr, ptr %7, align 8
  %66 = getelementptr inbounds i8, ptr %65, i64 0
  store i8 %64, ptr %66, align 1
  %67 = load ptr, ptr %9, align 8
  %68 = load i32, ptr %11, align 4
  %69 = add nsw i32 %68, 1
  store i32 %69, ptr %11, align 4
  %70 = sext i32 %68 to i64
  %71 = getelementptr inbounds i8, ptr %67, i64 %70
  %72 = load i8, ptr %71, align 1
  %73 = load ptr, ptr %7, align 8
  %74 = getelementptr inbounds i8, ptr %73, i64 1
  store i8 %72, ptr %74, align 1
  %75 = load ptr, ptr %9, align 8
  %76 = load i32, ptr %11, align 4
  %77 = add nsw i32 %76, 1
  store i32 %77, ptr %11, align 4
  %78 = sext i32 %76 to i64
  %79 = getelementptr inbounds i8, ptr %75, i64 %78
  %80 = load i8, ptr %79, align 1
  %81 = load ptr, ptr %7, align 8
  %82 = getelementptr inbounds i8, ptr %81, i64 2
  store i8 %80, ptr %82, align 1
  br label %83

83:                                               ; preds = %54, %48
  %84 = load ptr, ptr %5, align 8
  %85 = getelementptr inbounds nuw i8, ptr %84, i32 1
  store ptr %85, ptr %5, align 8
  %86 = load ptr, ptr %7, align 8
  %87 = getelementptr inbounds i8, ptr %86, i64 3
  store ptr %87, ptr %7, align 8
  br label %88

88:                                               ; preds = %41, %83
  %89 = load ptr, ptr %5, align 8
  %90 = load i8, ptr %89, align 1
  %91 = zext i8 %90 to i32
  %92 = load i32, ptr %10, align 4
  %93 = icmp ne i32 %91, %92
  br i1 %93, label %94, label %123

94:                                               ; preds = %88
  %95 = load ptr, ptr %5, align 8
  %96 = load i8, ptr %95, align 1
  %97 = zext i8 %96 to i32
  %98 = mul nsw i32 %97, 4
  store i32 %98, ptr %11, align 4
  %99 = load ptr, ptr %9, align 8
  %100 = load i32, ptr %11, align 4
  %101 = add nsw i32 %100, 1
  store i32 %101, ptr %11, align 4
  %102 = sext i32 %100 to i64
  %103 = getelementptr inbounds i8, ptr %99, i64 %102
  %104 = load i8, ptr %103, align 1
  %105 = load ptr, ptr %7, align 8
  %106 = getelementptr inbounds i8, ptr %105, i64 0
  store i8 %104, ptr %106, align 1
  %107 = load ptr, ptr %9, align 8
  %108 = load i32, ptr %11, align 4
  %109 = add nsw i32 %108, 1
  store i32 %109, ptr %11, align 4
  %110 = sext i32 %108 to i64
  %111 = getelementptr inbounds i8, ptr %107, i64 %110
  %112 = load i8, ptr %111, align 1
  %113 = load ptr, ptr %7, align 8
  %114 = getelementptr inbounds i8, ptr %113, i64 1
  store i8 %112, ptr %114, align 1
  %115 = load ptr, ptr %9, align 8
  %116 = load i32, ptr %11, align 4
  %117 = add nsw i32 %116, 1
  store i32 %117, ptr %11, align 4
  %118 = sext i32 %116 to i64
  %119 = getelementptr inbounds i8, ptr %115, i64 %118
  %120 = load i8, ptr %119, align 1
  %121 = load ptr, ptr %7, align 8
  %122 = getelementptr inbounds i8, ptr %121, i64 2
  store i8 %120, ptr %122, align 1
  br label %123

123:                                              ; preds = %94, %88
  %124 = load ptr, ptr %5, align 8
  %125 = getelementptr inbounds nuw i8, ptr %124, i32 1
  store ptr %125, ptr %5, align 8
  %126 = load ptr, ptr %7, align 8
  %127 = getelementptr inbounds i8, ptr %126, i64 3
  store ptr %127, ptr %7, align 8
  br label %128

128:                                              ; preds = %41, %123
  %129 = load ptr, ptr %5, align 8
  %130 = load i8, ptr %129, align 1
  %131 = zext i8 %130 to i32
  %132 = load i32, ptr %10, align 4
  %133 = icmp ne i32 %131, %132
  br i1 %133, label %134, label %163

134:                                              ; preds = %128
  %135 = load ptr, ptr %5, align 8
  %136 = load i8, ptr %135, align 1
  %137 = zext i8 %136 to i32
  %138 = mul nsw i32 %137, 4
  store i32 %138, ptr %11, align 4
  %139 = load ptr, ptr %9, align 8
  %140 = load i32, ptr %11, align 4
  %141 = add nsw i32 %140, 1
  store i32 %141, ptr %11, align 4
  %142 = sext i32 %140 to i64
  %143 = getelementptr inbounds i8, ptr %139, i64 %142
  %144 = load i8, ptr %143, align 1
  %145 = load ptr, ptr %7, align 8
  %146 = getelementptr inbounds i8, ptr %145, i64 0
  store i8 %144, ptr %146, align 1
  %147 = load ptr, ptr %9, align 8
  %148 = load i32, ptr %11, align 4
  %149 = add nsw i32 %148, 1
  store i32 %149, ptr %11, align 4
  %150 = sext i32 %148 to i64
  %151 = getelementptr inbounds i8, ptr %147, i64 %150
  %152 = load i8, ptr %151, align 1
  %153 = load ptr, ptr %7, align 8
  %154 = getelementptr inbounds i8, ptr %153, i64 1
  store i8 %152, ptr %154, align 1
  %155 = load ptr, ptr %9, align 8
  %156 = load i32, ptr %11, align 4
  %157 = add nsw i32 %156, 1
  store i32 %157, ptr %11, align 4
  %158 = sext i32 %156 to i64
  %159 = getelementptr inbounds i8, ptr %155, i64 %158
  %160 = load i8, ptr %159, align 1
  %161 = load ptr, ptr %7, align 8
  %162 = getelementptr inbounds i8, ptr %161, i64 2
  store i8 %160, ptr %162, align 1
  br label %163

163:                                              ; preds = %134, %128
  %164 = load ptr, ptr %5, align 8
  %165 = getelementptr inbounds nuw i8, ptr %164, i32 1
  store ptr %165, ptr %5, align 8
  %166 = load ptr, ptr %7, align 8
  %167 = getelementptr inbounds i8, ptr %166, i64 3
  store ptr %167, ptr %7, align 8
  br label %168

168:                                              ; preds = %41, %163
  %169 = load ptr, ptr %5, align 8
  %170 = load i8, ptr %169, align 1
  %171 = zext i8 %170 to i32
  %172 = load i32, ptr %10, align 4
  %173 = icmp ne i32 %171, %172
  br i1 %173, label %174, label %203

174:                                              ; preds = %168
  %175 = load ptr, ptr %5, align 8
  %176 = load i8, ptr %175, align 1
  %177 = zext i8 %176 to i32
  %178 = mul nsw i32 %177, 4
  store i32 %178, ptr %11, align 4
  %179 = load ptr, ptr %9, align 8
  %180 = load i32, ptr %11, align 4
  %181 = add nsw i32 %180, 1
  store i32 %181, ptr %11, align 4
  %182 = sext i32 %180 to i64
  %183 = getelementptr inbounds i8, ptr %179, i64 %182
  %184 = load i8, ptr %183, align 1
  %185 = load ptr, ptr %7, align 8
  %186 = getelementptr inbounds i8, ptr %185, i64 0
  store i8 %184, ptr %186, align 1
  %187 = load ptr, ptr %9, align 8
  %188 = load i32, ptr %11, align 4
  %189 = add nsw i32 %188, 1
  store i32 %189, ptr %11, align 4
  %190 = sext i32 %188 to i64
  %191 = getelementptr inbounds i8, ptr %187, i64 %190
  %192 = load i8, ptr %191, align 1
  %193 = load ptr, ptr %7, align 8
  %194 = getelementptr inbounds i8, ptr %193, i64 1
  store i8 %192, ptr %194, align 1
  %195 = load ptr, ptr %9, align 8
  %196 = load i32, ptr %11, align 4
  %197 = add nsw i32 %196, 1
  store i32 %197, ptr %11, align 4
  %198 = sext i32 %196 to i64
  %199 = getelementptr inbounds i8, ptr %195, i64 %198
  %200 = load i8, ptr %199, align 1
  %201 = load ptr, ptr %7, align 8
  %202 = getelementptr inbounds i8, ptr %201, i64 2
  store i8 %200, ptr %202, align 1
  br label %203

203:                                              ; preds = %174, %168
  %204 = load ptr, ptr %5, align 8
  %205 = getelementptr inbounds nuw i8, ptr %204, i32 1
  store ptr %205, ptr %5, align 8
  %206 = load ptr, ptr %7, align 8
  %207 = getelementptr inbounds i8, ptr %206, i64 3
  store ptr %207, ptr %7, align 8
  br label %208

208:                                              ; preds = %203
  %209 = load i32, ptr %12, align 4
  %210 = add nsw i32 %209, -1
  store i32 %210, ptr %12, align 4
  %211 = icmp sgt i32 %210, 0
  br i1 %211, label %48, label %212, !llvm.loop !22

212:                                              ; preds = %208
  br label %213

213:                                              ; preds = %212, %41
  call void @llvm.lifetime.end.p0(i64 4, ptr %12) #2
  %214 = load i32, ptr %6, align 4
  %215 = load ptr, ptr %5, align 8
  %216 = sext i32 %214 to i64
  %217 = getelementptr inbounds i8, ptr %215, i64 %216
  store ptr %217, ptr %5, align 8
  %218 = load i32, ptr %8, align 4
  %219 = load ptr, ptr %7, align 8
  %220 = sext i32 %218 to i64
  %221 = getelementptr inbounds i8, ptr %219, i64 %220
  store ptr %221, ptr %7, align 8
  br label %37, !llvm.loop !23

222:                                              ; preds = %37
  call void @llvm.lifetime.end.p0(i64 4, ptr %11) #2
  call void @llvm.lifetime.end.p0(i64 4, ptr %10) #2
  call void @llvm.lifetime.end.p0(i64 8, ptr %9) #2
  call void @llvm.lifetime.end.p0(i64 4, ptr %8) #2
  call void @llvm.lifetime.end.p0(i64 8, ptr %7) #2
  call void @llvm.lifetime.end.p0(i64 4, ptr %6) #2
  call void @llvm.lifetime.end.p0(i64 8, ptr %5) #2
  call void @llvm.lifetime.end.p0(i64 4, ptr %4) #2
  call void @llvm.lifetime.end.p0(i64 4, ptr %3) #2
  ret void
}