; Function Attrs: nofree norecurse nosync nounwind memory(readwrite, inaccessiblemem: none) uwtable
define internal void @Blit1to3Key(ptr noundef readonly captures(none) %0) #1 {
  %2 = getelementptr inbounds nuw i8, ptr %0, i64 52
  %3 = load i32, ptr %2, align 4
  %4 = getelementptr inbounds nuw i8, ptr %0, i64 96
  %5 = load ptr, ptr %4, align 8
  %6 = getelementptr inbounds nuw i8, ptr %0, i64 116
  %7 = load i32, ptr %6, align 4
  %.not90 = icmp eq i32 %3, 0
  br i1 %.not90, label %._crit_edge, label %.lr.ph

.lr.ph:                                           ; preds = %1
  %8 = getelementptr inbounds nuw i8, ptr %0, i64 60
  %9 = load i32, ptr %8, align 4
  %10 = getelementptr inbounds nuw i8, ptr %0, i64 40
  %11 = load ptr, ptr %10, align 8
  %12 = getelementptr inbounds nuw i8, ptr %0, i64 28
  %13 = load i32, ptr %12, align 4
  %14 = getelementptr inbounds nuw i8, ptr %0, i64 8
  %15 = load ptr, ptr %14, align 8
  %16 = getelementptr inbounds nuw i8, ptr %0, i64 48
  %17 = load i32, ptr %16, align 8
  %18 = add nsw i32 %17, 3
  %19 = sdiv i32 %18, 4
  %20 = and i32 %17, 3
  %21 = sext i32 %13 to i64
  %22 = sext i32 %9 to i64
  br label %23

23:                                               ; preds = %.lr.ph, %95
  %.in = phi i32 [ %3, %.lr.ph ], [ %24, %95 ]
  %.07292 = phi ptr [ %15, %.lr.ph ], [ %96, %95 ]
  %.07691 = phi ptr [ %11, %.lr.ph ], [ %97, %95 ]
  %24 = add nsw i32 %.in, -1
  switch i32 %20, label %default.unreachable93 [
    i32 0, label %25
    i32 3, label %42
    i32 2, label %59
    i32 1, label %76
  ]

25:                                               ; preds = %23, %90
  %.480 = phi ptr [ %92, %90 ], [ %.07691, %23 ]
  %.4 = phi ptr [ %91, %90 ], [ %.07292, %23 ]
  %.3 = phi i32 [ %93, %90 ], [ %19, %23 ]
  %26 = load i8, ptr %.4, align 1
  %27 = zext i8 %26 to i32
  %.not86 = icmp eq i32 %7, %27
  br i1 %.not86, label %39, label %28

28:                                               ; preds = %25
  %29 = shl nuw nsw i32 %27, 2
  %30 = zext nneg i32 %29 to i64
  %31 = getelementptr inbounds nuw i8, ptr %5, i64 %30
  %32 = load i8, ptr %31, align 1
  store i8 %32, ptr %.480, align 1
  %33 = getelementptr inbounds nuw i8, ptr %31, i64 1
  %34 = load i8, ptr %33, align 1
  %35 = getelementptr inbounds nuw i8, ptr %.480, i64 1
  store i8 %34, ptr %35, align 1
  %36 = getelementptr inbounds nuw i8, ptr %31, i64 2
  %37 = load i8, ptr %36, align 1
  %38 = getelementptr inbounds nuw i8, ptr %.480, i64 2
  store i8 %37, ptr %38, align 1
  br label %39

39:                                               ; preds = %28, %25
  %40 = getelementptr inbounds nuw i8, ptr %.4, i64 1
  %41 = getelementptr inbounds nuw i8, ptr %.480, i64 3
  br label %42

42:                                               ; preds = %39, %23
  %.177 = phi ptr [ %41, %39 ], [ %.07691, %23 ]
  %.173 = phi ptr [ %40, %39 ], [ %.07292, %23 ]
  %.0 = phi i32 [ %.3, %39 ], [ %19, %23 ]
  %43 = load i8, ptr %.173, align 1
  %44 = zext i8 %43 to i32
  %.not87 = icmp eq i32 %7, %44
  br i1 %.not87, label %56, label %45

45:                                               ; preds = %42
  %46 = shl nuw nsw i32 %44, 2
  %47 = zext nneg i32 %46 to i64
  %48 = getelementptr inbounds nuw i8, ptr %5, i64 %47
  %49 = load i8, ptr %48, align 1
  store i8 %49, ptr %.177, align 1
  %50 = getelementptr inbounds nuw i8, ptr %48, i64 1
  %51 = load i8, ptr %50, align 1
  %52 = getelementptr inbounds nuw i8, ptr %.177, i64 1
  store i8 %51, ptr %52, align 1
  %53 = getelementptr inbounds nuw i8, ptr %48, i64 2
  %54 = load i8, ptr %53, align 1
  %55 = getelementptr inbounds nuw i8, ptr %.177, i64 2
  store i8 %54, ptr %55, align 1
  br label %56

56:                                               ; preds = %45, %42
  %57 = getelementptr inbounds nuw i8, ptr %.173, i64 1
  %58 = getelementptr inbounds nuw i8, ptr %.177, i64 3
  br label %59

59:                                               ; preds = %56, %23
  %.278 = phi ptr [ %58, %56 ], [ %.07691, %23 ]
  %.274 = phi ptr [ %57, %56 ], [ %.07292, %23 ]
  %.1 = phi i32 [ %.0, %56 ], [ %19, %23 ]
  %60 = load i8, ptr %.274, align 1
  %61 = zext i8 %60 to i32
  %.not88 = icmp eq i32 %7, %61
  br i1 %.not88, label %73, label %62

62:                                               ; preds = %59
  %63 = shl nuw nsw i32 %61, 2
  %64 = zext nneg i32 %63 to i64
  %65 = getelementptr inbounds nuw i8, ptr %5, i64 %64
  %66 = load i8, ptr %65, align 1
  store i8 %66, ptr %.278, align 1
  %67 = getelementptr inbounds nuw i8, ptr %65, i64 1
  %68 = load i8, ptr %67, align 1
  %69 = getelementptr inbounds nuw i8, ptr %.278, i64 1
  store i8 %68, ptr %69, align 1
  %70 = getelementptr inbounds nuw i8, ptr %65, i64 2
  %71 = load i8, ptr %70, align 1
  %72 = getelementptr inbounds nuw i8, ptr %.278, i64 2
  store i8 %71, ptr %72, align 1
  br label %73

73:                                               ; preds = %62, %59
  %74 = getelementptr inbounds nuw i8, ptr %.274, i64 1
  %75 = getelementptr inbounds nuw i8, ptr %.278, i64 3
  br label %76

76:                                               ; preds = %73, %23
  %.379 = phi ptr [ %.07691, %23 ], [ %75, %73 ]
  %.375 = phi ptr [ %.07292, %23 ], [ %74, %73 ]
  %.2 = phi i32 [ %19, %23 ], [ %.1, %73 ]
  %77 = load i8, ptr %.375, align 1
  %78 = zext i8 %77 to i32
  %.not89 = icmp eq i32 %7, %78
  br i1 %.not89, label %90, label %79

79:                                               ; preds = %76
  %80 = shl nuw nsw i32 %78, 2
  %81 = zext nneg i32 %80 to i64
  %82 = getelementptr inbounds nuw i8, ptr %5, i64 %81
  %83 = load i8, ptr %82, align 1
  store i8 %83, ptr %.379, align 1
  %84 = getelementptr inbounds nuw i8, ptr %82, i64 1
  %85 = load i8, ptr %84, align 1
  %86 = getelementptr inbounds nuw i8, ptr %.379, i64 1
  store i8 %85, ptr %86, align 1
  %87 = getelementptr inbounds nuw i8, ptr %82, i64 2
  %88 = load i8, ptr %87, align 1
  %89 = getelementptr inbounds nuw i8, ptr %.379, i64 2
  store i8 %88, ptr %89, align 1
  br label %90

90:                                               ; preds = %79, %76
  %91 = getelementptr inbounds nuw i8, ptr %.375, i64 1
  %92 = getelementptr inbounds nuw i8, ptr %.379, i64 3
  %93 = add nsw i32 %.2, -1
  %94 = icmp sgt i32 %.2, 1
  br i1 %94, label %25, label %95, !llvm.loop !22

default.unreachable93:                            ; preds = %23
  unreachable

95:                                               ; preds = %90
  %96 = getelementptr inbounds i8, ptr %91, i64 %21
  %97 = getelementptr inbounds i8, ptr %92, i64 %22
  %.not = icmp eq i32 %24, 0
  br i1 %.not, label %._crit_edge, label %23, !llvm.loop !23

._crit_edge:                                      ; preds = %95, %1
  ret void
}